; Function Attrs: null_pointer_is_valid sspstrong uwtable
define internal i32 @netlogon_dissect_DELTA_DELETE_USER(ptr noundef %0, i32 noundef %1, ptr noundef %2, ptr noundef %3, ptr noundef %4, ptr noundef %5) #0 {
  %7 = load i32, ptr @hf_netlogon_acct_name, align 4
  %8 = tail call i32 @dissect_ndr_str_pointer_item(ptr noundef %0, i32 noundef %1, ptr noundef %2, ptr noundef %3, ptr noundef %4, ptr noundef %5, i32 noundef 2, ptr noundef nonnull @.str.213, i32 noundef %7, i32 noundef 0)
  %9 = load i32, ptr @hf_netlogon_dummy, align 4
  %10 = tail call i32 @dissect_ndr_counted_string(ptr noundef %0, i32 noundef %8, ptr noundef %2, ptr noundef %3, ptr noundef %4, ptr noundef %5, i32 noundef %9, i32 noundef 0)
  %11 = load i32, ptr @hf_netlogon_dummy, align 4
  %12 = tail call i32 @dissect_ndr_counted_string(ptr noundef %0, i32 noundef %10, ptr noundef %2, ptr noundef %3, ptr noundef %4, ptr noundef %5, i32 noundef %11, i32 noundef 0)
  %13 = load i32, ptr @hf_netlogon_dummy, align 4
  %14 = tail call i32 @dissect_ndr_counted_string(ptr noundef %0, i32 noundef %12, ptr noundef %2, ptr noundef %3, ptr noundef %4, ptr noundef %5, i32 noundef %13, i32 noundef 0)
  %15 = load i32, ptr @hf_netlogon_dummy, align 4
  %16 = tail call i32 @dissect_ndr_counted_string(ptr noundef %0, i32 noundef %14, ptr noundef %2, ptr noundef %3, ptr noundef %4, ptr noundef %5, i32 noundef %15, i32 noundef 0)
  %17 = load i32, ptr @hf_netlogon_reserved, align 4
  %18 = tail call i32 @dissect_ndr_uint32(ptr noundef %0, i32 noundef %16, ptr noundef %2, ptr noundef %3, ptr noundef %4, ptr noundef %5, i32 noundef %17, ptr noundef null)
  %19 = load i32, ptr @hf_netlogon_reserved, align 4
  %20 = tail call i32 @dissect_ndr_uint32(ptr noundef %0, i32 noundef %18, ptr noundef %2, ptr noundef %3, ptr noundef %4, ptr noundef %5, i32 noundef %19, ptr noundef null)
  %21 = load i32, ptr @hf_netlogon_reserved, align 4
  %22 = tail call i32 @dissect_ndr_uint32(ptr noundef %0, i32 noundef %20, ptr noundef %2, ptr noundef %3, ptr noundef %4, ptr noundef %5, i32 noundef %21, ptr noundef null)
  %23 = load i32, ptr @hf_netlogon_reserved, align 4
  %24 = tail call i32 @dissect_ndr_uint32(ptr noundef %0, i32 noundef %22, ptr noundef %2, ptr noundef %3, ptr noundef %4, ptr noundef %5, i32 noundef %23, ptr noundef null)
  ret i32 %24
}